target datalayout = "e-m:e-p270:32:32-p271:32:32-p272:64:64-i64:64-i128:128-f80:128-n8:16:32:64-S128"
target triple = "x86_64-pc-linux-gnu"

%struct.Vec_Wrd_t_ = type { i32, i32, ptr }

@.str.5 = private unnamed_addr constant [2 x i8] c"\0A\00", align 1
@.str.16 = private unnamed_addr constant [3 x i8] c"%c\00", align 1
@.str.20 = private unnamed_addr constant [11 x i8] c"%02d.resub\00", align 1
@s_Counter = internal global i32 0, align 4
@.str.21 = private unnamed_addr constant [3 x i8] c"wb\00", align 1
@.str.22 = private unnamed_addr constant [26 x i8] c"Cannot open output file.\0A\00", align 1
@.str.23 = private unnamed_addr constant [19 x i8] c"resyn %d %d %d %d\0A\00", align 1

; Function Attrs: inlinehint nounwind uwtable
define internal i32 @Abc_TtGetBit(ptr noundef %0, i32 noundef %1) #2 {
  %3 = alloca ptr, align 8
  %4 = alloca i32, align 4
  store ptr %0, ptr %3, align 8, !tbaa !10
  store i32 %1, ptr %4, align 4, !tbaa !8
  %5 = load ptr, ptr %3, align 8, !tbaa !10
  %6 = load i32, ptr %4, align 4, !tbaa !8
  %7 = ashr i32 %6, 6
  %8 = sext i32 %7 to i64
  %9 = getelementptr inbounds i64, ptr %5, i64 %8
  %10 = load i64, ptr %9, align 8, !tbaa !17
  %11 = load i32, ptr %4, align 4, !tbaa !8
  %12 = and i32 %11, 63
  %13 = zext i32 %12 to i64
  %14 = lshr i64 %10, %13
  %15 = trunc i64 %14 to i32
  %16 = and i32 %15, 1
  ret i32 %16
}

; Function Attrs: inlinehint nounwind uwtable
define internal ptr @Vec_WrdEntryP(ptr noundef %0, i32 noundef %1) #2 {
  %3 = alloca ptr, align 8
  %4 = alloca i32, align 4
  store ptr %0, ptr %3, align 8, !tbaa !3
  store i32 %1, ptr %4, align 4, !tbaa !8
  %5 = load ptr, ptr %3, align 8, !tbaa !3
  %6 = getelementptr inbounds nuw %struct.Vec_Wrd_t_, ptr %5, i32 0, i32 2
  %7 = load ptr, ptr %6, align 8, !tbaa !16
  %8 = load i32, ptr %4, align 4, !tbaa !8
  %9 = sext i32 %8 to i64
  %10 = getelementptr inbounds i64, ptr %7, i64 %9
  ret ptr %10
}

; Function Attrs: nounwind uwtable
define void @Supp_DeriveDumpSims(ptr noundef %0, ptr noundef %1, i32 noundef %2) #0 {
  %4 = alloca ptr, align 8
  %5 = alloca ptr, align 8
  %6 = alloca i32, align 4
  %7 = alloca i32, align 4
  %8 = alloca i32, align 4
  %9 = alloca i32, align 4
  %10 = alloca ptr, align 8
  store ptr %0, ptr %4, align 8, !tbaa !166
  store ptr %1, ptr %5, align 8, !tbaa !3
  store i32 %2, ptr %6, align 4, !tbaa !8
  call void @llvm.lifetime.start.p0(i64 4, ptr %7) #15
  call void @llvm.lifetime.start.p0(i64 4, ptr %8) #15
  call void @llvm.lifetime.start.p0(i64 4, ptr %9) #15
  %11 = load ptr, ptr %5, align 8, !tbaa !3
  %12 = call i32 @Vec_WrdSize(ptr noundef %11)
  %13 = load i32, ptr %6, align 4, !tbaa !8
  %14 = sdiv i32 %12, %13
  store i32 %14, ptr %9, align 4, !tbaa !8
  store i32 0, ptr %7, align 4, !tbaa !8
  br label %15

15:                                               ; preds = %43, %3
  %16 = load i32, ptr %7, align 4, !tbaa !8
  %17 = load i32, ptr %9, align 4, !tbaa !8
  %18 = icmp slt i32 %16, %17
  br i1 %18, label %19, label %46

19:                                               ; preds = %15
  call void @llvm.lifetime.start.p0(i64 8, ptr %10) #15
  %20 = load ptr, ptr %5, align 8, !tbaa !3
  %21 = load i32, ptr %7, align 4, !tbaa !8
  %22 = load i32, ptr %6, align 4, !tbaa !8
  %23 = mul nsw i32 %21, %22
  %24 = call ptr @Vec_WrdEntryP(ptr noundef %20, i32 noundef %23)
  store ptr %24, ptr %10, align 8, !tbaa !10
  store i32 0, ptr %8, align 4, !tbaa !8
  br label %25

25:                                               ; preds = %37, %19
  %26 = load i32, ptr %8, align 4, !tbaa !8
  %27 = load i32, ptr %6, align 4, !tbaa !8
  %28 = mul nsw i32 64, %27
  %29 = icmp slt i32 %26, %28
  br i1 %29, label %30, label %40

30:                                               ; preds = %25
  %31 = load ptr, ptr %4, align 8, !tbaa !166
  %32 = load ptr, ptr %10, align 8, !tbaa !10
  %33 = load i32, ptr %8, align 4, !tbaa !8
  %34 = call i32 @Abc_TtGetBit(ptr noundef %32, i32 noundef %33)
  %35 = add nsw i32 48, %34
  %36 = call i32 (ptr, ptr, ...) @fprintf(ptr noundef %31, ptr noundef @.str.16, i32 noundef %35) #15
  br label %37

37:                                               ; preds = %30
  %38 = load i32, ptr %8, align 4, !tbaa !8
  %39 = add nsw i32 %38, 1
  store i32 %39, ptr %8, align 4, !tbaa !8
  br label %25, !llvm.loop !168

40:                                               ; preds = %25
  %41 = load ptr, ptr %4, align 8, !tbaa !166
  %42 = call i32 (ptr, ptr, ...) @fprintf(ptr noundef %41, ptr noundef @.str.5) #15
  call void @llvm.lifetime.end.p0(i64 8, ptr %10) #15
  br label %43

43:                                               ; preds = %40
  %44 = load i32, ptr %7, align 4, !tbaa !8
  %45 = add nsw i32 %44, 1
  store i32 %45, ptr %7, align 4, !tbaa !8
  br label %15, !llvm.loop !169

46:                                               ; preds = %15
  call void @llvm.lifetime.end.p0(i64 4, ptr %9) #15
  call void @llvm.lifetime.end.p0(i64 4, ptr %8) #15
  call void @llvm.lifetime.end.p0(i64 4, ptr %7) #15
  ret void
}

; Function Attrs: inlinehint nounwind uwtable
define internal i32 @Vec_WrdSize(ptr noundef %0) #2 {
  %2 = alloca ptr, align 8
  store ptr %0, ptr %2, align 8, !tbaa !3
  %3 = load ptr, ptr %2, align 8, !tbaa !3
  %4 = getelementptr inbounds nuw %struct.Vec_Wrd_t_, ptr %3, i32 0, i32 1
  %5 = load i32, ptr %4, align 4, !tbaa !14
  ret i32 %5
}

; Function Attrs: nounwind uwtable
define void @Supp_DeriveDumpProb(ptr noundef %0, ptr noundef %1, i32 noundef %2) #0 {
  %4 = alloca ptr, align 8
  %5 = alloca ptr, align 8
  %6 = alloca i32, align 4
  %7 = alloca [100 x i8], align 16
  %8 = alloca i32, align 4
  %9 = alloca i32, align 4
  %10 = alloca ptr, align 8
  store ptr %0, ptr %4, align 8, !tbaa !3
  store ptr %1, ptr %5, align 8, !tbaa !3
  store i32 %2, ptr %6, align 4, !tbaa !8
  call void @llvm.lifetime.start.p0(i64 100, ptr %7) #15
  call void @llvm.lifetime.start.p0(i64 4, ptr %8) #15
  %11 = load ptr, ptr %5, align 8, !tbaa !3
  %12 = call i32 @Vec_WrdSize(ptr noundef %11)
  %13 = load i32, ptr %6, align 4, !tbaa !8
  %14 = sdiv i32 %12, %13
  store i32 %14, ptr %8, align 4, !tbaa !8
  call void @llvm.lifetime.start.p0(i64 4, ptr %9) #15
  %15 = getelementptr inbounds [100 x i8], ptr %7, i64 0, i64 0
  %16 = load i32, ptr @s_Counter, align 4, !tbaa !8
  %17 = call i32 (ptr, ptr, ...) @sprintf(ptr noundef %15, ptr noundef @.str.20, i32 noundef %16) #15
  store i32 %17, ptr %9, align 4, !tbaa !8
  call void @llvm.lifetime.start.p0(i64 8, ptr %10) #15
  %18 = getelementptr inbounds [100 x i8], ptr %7, i64 0, i64 0
  %19 = call noalias ptr @fopen(ptr noundef %18, ptr noundef @.str.21)
  store ptr %19, ptr %10, align 8, !tbaa !166
  %20 = load ptr, ptr %10, align 8, !tbaa !166
  %21 = icmp eq ptr %20, null
  br i1 %21, label %22, label %24

22:                                               ; preds = %3
  %23 = call i32 (ptr, ...) @printf(ptr noundef @.str.22)
  br label %24

24:                                               ; preds = %22, %3
  %25 = load ptr, ptr %10, align 8, !tbaa !166
  %26 = load i32, ptr %8, align 4, !tbaa !8
  %27 = load i32, ptr %6, align 4, !tbaa !8
  %28 = mul nsw i32 64, %27
  %29 = call i32 (ptr, ptr, ...) @fprintf(ptr noundef %25, ptr noundef @.str.23, i32 noundef 0, i32 noundef %26, i32 noundef 1, i32 noundef %28) #15
  %30 = load ptr, ptr %10, align 8, !tbaa !166
  %31 = load ptr, ptr %5, align 8, !tbaa !3
  %32 = load i32, ptr %6, align 4, !tbaa !8
  call void @Supp_DeriveDumpSims(ptr noundef %30, ptr noundef %31, i32 noundef %32)
  %33 = load ptr, ptr %10, align 8, !tbaa !166
  %34 = load ptr, ptr %4, align 8, !tbaa !3
  %35 = load i32, ptr %6, align 4, !tbaa !8
  call void @Supp_DeriveDumpSims(ptr noundef %33, ptr noundef %34, i32 noundef %35)
  %36 = load ptr, ptr %10, align 8, !tbaa !166
  %37 = call i32 @fclose(ptr noundef %36)
  store i32 0, ptr %9, align 4, !tbaa !8
  call void @llvm.lifetime.end.p0(i64 8, ptr %10) #15
  call void @llvm.lifetime.end.p0(i64 4, ptr %9) #15
  call void @llvm.lifetime.end.p0(i64 4, ptr %8) #15
  call void @llvm.lifetime.end.p0(i64 100, ptr %7) #15
  ret void
}