; Function Attrs: nofree nounwind uwtable
define void @Supp_DeriveDumpProb(ptr noundef readonly captures(none) %0, ptr noundef readonly captures(none) %1, i32 noundef %2) local_unnamed_addr #12 {
  %4 = alloca [100 x i8], align 16
  call void @llvm.lifetime.start.p0(i64 100, ptr nonnull %4) #32
  %5 = getelementptr i8, ptr %1, i64 4
  %.val = load i32, ptr %5, align 4, !tbaa !3
  %6 = sdiv i32 %.val, %2
  %7 = load i32, ptr @s_Counter, align 4, !tbaa !35
  %8 = call i32 (ptr, ptr, ...) @sprintf(ptr noundef nonnull dereferenceable(1) %4, ptr noundef nonnull dereferenceable(1) @.str.20, i32 noundef %7) #32
  %9 = call noalias ptr @fopen(ptr noundef nonnull %4, ptr noundef nonnull @.str.21)
  %10 = icmp eq ptr %9, null
  br i1 %10, label %.split13, label %.split

.split:                                           ; preds = %3
  %11 = shl nsw i32 %2, 6
  %12 = tail call i32 (ptr, ptr, ...) @fprintf(ptr noundef nonnull %9, ptr noundef nonnull @.str.23, i32 noundef 0, i32 noundef %6, i32 noundef 1, i32 noundef %11) #32
  %.val.i = load i32, ptr %5, align 4, !tbaa !3
  %13 = sdiv i32 %.val.i, %2
  %14 = icmp sgt i32 %13, 0
  br i1 %14, label %.lr.ph20.i, label %Supp_DeriveDumpSims.exit

.lr.ph20.i:                                       ; preds = %.split
  %15 = getelementptr i8, ptr %1, i64 8
  %16 = icmp sgt i32 %2, 0
  br i1 %16, label %.lr.ph.us.preheader.i, label %.lr.ph20.split.i

.lr.ph.us.preheader.i:                            ; preds = %.lr.ph20.i
  %17 = zext nneg i32 %2 to i64
  %wide.trip.count.i = zext nneg i32 %13 to i64
  br label %.lr.ph.us.i

.lr.ph.us.i:                                      ; preds = %._crit_edge.us.i, %.lr.ph.us.preheader.i
  %indvars.iv.i = phi i64 [ 0, %.lr.ph.us.preheader.i ], [ %indvars.iv.next.i, %._crit_edge.us.i ]
  %18 = mul nuw nsw i64 %indvars.iv.i, %17
  %.val16.us.i = load ptr, ptr %15, align 8, !tbaa !10
  %19 = getelementptr inbounds nuw i64, ptr %.val16.us.i, i64 %18
  br label %20

20:                                               ; preds = %20, %.lr.ph.us.i
  %.01417.us.i = phi i32 [ 0, %.lr.ph.us.i ], [ %31, %20 ]
  %21 = lshr i32 %.01417.us.i, 6
  %22 = zext nneg i32 %21 to i64
  %23 = getelementptr inbounds nuw i64, ptr %19, i64 %22
  %24 = load i64, ptr %23, align 8, !tbaa !11
  %25 = and i32 %.01417.us.i, 63
  %26 = zext nneg i32 %25 to i64
  %27 = lshr i64 %24, %26
  %28 = trunc i64 %27 to i32
  %29 = and i32 %28, 1
  %30 = or disjoint i32 %29, 48
  %fputc15.us.i = tail call i32 @fputc(i32 %30, ptr nonnull %9)
  %31 = add nuw nsw i32 %.01417.us.i, 1
  %exitcond23.not.i = icmp eq i32 %31, %11
  br i1 %exitcond23.not.i, label %._crit_edge.us.i, label %20, !llvm.loop !150

._crit_edge.us.i:                                 ; preds = %20
  %fputc.us.i = tail call i32 @fputc(i32 10, ptr nonnull %9)
  %indvars.iv.next.i = add nuw nsw i64 %indvars.iv.i, 1
  %exitcond25.not.i = icmp eq i64 %indvars.iv.next.i, %wide.trip.count.i
  br i1 %exitcond25.not.i, label %Supp_DeriveDumpSims.exit, label %.lr.ph.us.i, !llvm.loop !151

.lr.ph20.split.i:                                 ; preds = %.lr.ph20.i, %.lr.ph20.split.i
  %.018.i = phi i32 [ %32, %.lr.ph20.split.i ], [ 0, %.lr.ph20.i ]
  %fputc.i = tail call i32 @fputc(i32 10, ptr nonnull %9)
  %32 = add nuw nsw i32 %.018.i, 1
  %exitcond.not.i = icmp eq i32 %32, %13
  br i1 %exitcond.not.i, label %Supp_DeriveDumpSims.exit, label %.lr.ph20.split.i, !llvm.loop !151

Supp_DeriveDumpSims.exit:                         ; preds = %.lr.ph20.split.i, %._crit_edge.us.i, %.split
  %33 = getelementptr i8, ptr %0, i64 4
  %.val.i14 = load i32, ptr %33, align 4, !tbaa !3
  %34 = sdiv i32 %.val.i14, %2
  %35 = icmp sgt i32 %34, 0
  br i1 %35, label %.lr.ph20.i15, label %Supp_DeriveDumpSims.exit33

.lr.ph20.i15:                                     ; preds = %Supp_DeriveDumpSims.exit
  %36 = getelementptr i8, ptr %0, i64 8
  %37 = icmp sgt i32 %2, 0
  br i1 %37, label %.lr.ph.us.preheader.i20, label %.lr.ph20.split.i16

.lr.ph.us.preheader.i20:                          ; preds = %.lr.ph20.i15
  %38 = zext nneg i32 %2 to i64
  %wide.trip.count.i22 = zext nneg i32 %34 to i64
  br label %.lr.ph.us.i23

.lr.ph.us.i23:                                    ; preds = %._crit_edge.us.i29, %.lr.ph.us.preheader.i20
  %indvars.iv.i24 = phi i64 [ 0, %.lr.ph.us.preheader.i20 ], [ %indvars.iv.next.i31, %._crit_edge.us.i29 ]
  %39 = mul nuw nsw i64 %indvars.iv.i24, %38
  %.val16.us.i25 = load ptr, ptr %36, align 8, !tbaa !10
  %40 = getelementptr inbounds nuw i64, ptr %.val16.us.i25, i64 %39
  br label %41

41:                                               ; preds = %41, %.lr.ph.us.i23
  %.01417.us.i26 = phi i32 [ 0, %.lr.ph.us.i23 ], [ %52, %41 ]
  %42 = lshr i32 %.01417.us.i26, 6
  %43 = zext nneg i32 %42 to i64
  %44 = getelementptr inbounds nuw i64, ptr %40, i64 %43
  %45 = load i64, ptr %44, align 8, !tbaa !11
  %46 = and i32 %.01417.us.i26, 63
  %47 = zext nneg i32 %46 to i64
  %48 = lshr i64 %45, %47
  %49 = trunc i64 %48 to i32
  %50 = and i32 %49, 1
  %51 = or disjoint i32 %50, 48
  %fputc15.us.i27 = tail call i32 @fputc(i32 %51, ptr nonnull %9)
  %52 = add nuw nsw i32 %.01417.us.i26, 1
  %exitcond23.not.i28 = icmp eq i32 %52, %11
  br i1 %exitcond23.not.i28, label %._crit_edge.us.i29, label %41, !llvm.loop !150

._crit_edge.us.i29:                               ; preds = %41
  %fputc.us.i30 = tail call i32 @fputc(i32 10, ptr nonnull %9)
  %indvars.iv.next.i31 = add nuw nsw i64 %indvars.iv.i24, 1
  %exitcond25.not.i32 = icmp eq i64 %indvars.iv.next.i31, %wide.trip.count.i22
  br i1 %exitcond25.not.i32, label %Supp_DeriveDumpSims.exit33, label %.lr.ph.us.i23, !llvm.loop !151

.lr.ph20.split.i16:                               ; preds = %.lr.ph20.i15, %.lr.ph20.split.i16
  %.018.i17 = phi i32 [ %53, %.lr.ph20.split.i16 ], [ 0, %.lr.ph20.i15 ]
  %fputc.i18 = tail call i32 @fputc(i32 10, ptr nonnull %9)
  %53 = add nuw nsw i32 %.018.i17, 1
  %exitcond.not.i19 = icmp eq i32 %53, %34
  br i1 %exitcond.not.i19, label %Supp_DeriveDumpSims.exit33, label %.lr.ph20.split.i16, !llvm.loop !151

.split13:                                         ; preds = %3
  %puts = tail call i32 @puts(ptr nonnull dereferenceable(1) @str.5)
  %54 = shl nsw i32 %2, 6
  %55 = tail call i32 (ptr, ptr, ...) @fprintf(ptr noundef null, ptr noundef nonnull @.str.23, i32 noundef 0, i32 noundef %6, i32 noundef 1, i32 noundef %54) #32
  %.val.i34 = load i32, ptr %5, align 4, !tbaa !3
  %56 = sdiv i32 %.val.i34, %2
  %57 = icmp sgt i32 %56, 0
  br i1 %57, label %.lr.ph20.i35, label %Supp_DeriveDumpSims.exit53

.lr.ph20.i35:                                     ; preds = %.split13
  %58 = getelementptr i8, ptr %1, i64 8
  %59 = icmp sgt i32 %2, 0
  br i1 %59, label %.lr.ph.us.preheader.i40, label %.lr.ph20.split.i36

.lr.ph.us.preheader.i40:                          ; preds = %.lr.ph20.i35
  %60 = zext nneg i32 %2 to i64
  %wide.trip.count.i42 = zext nneg i32 %56 to i64
  br label %.lr.ph.us.i43

.lr.ph.us.i43:                                    ; preds = %._crit_edge.us.i49, %.lr.ph.us.preheader.i40
  %indvars.iv.i44 = phi i64 [ 0, %.lr.ph.us.preheader.i40 ], [ %indvars.iv.next.i51, %._crit_edge.us.i49 ]
  %61 = mul nuw nsw i64 %indvars.iv.i44, %60
  %.val16.us.i45 = load ptr, ptr %58, align 8, !tbaa !10
  %62 = getelementptr inbounds nuw i64, ptr %.val16.us.i45, i64 %61
  br label %63

63:                                               ; preds = %63, %.lr.ph.us.i43
  %.01417.us.i46 = phi i32 [ 0, %.lr.ph.us.i43 ], [ %74, %63 ]
  %64 = lshr i32 %.01417.us.i46, 6
  %65 = zext nneg i32 %64 to i64
  %66 = getelementptr inbounds nuw i64, ptr %62, i64 %65
  %67 = load i64, ptr %66, align 8, !tbaa !11
  %68 = and i32 %.01417.us.i46, 63
  %69 = zext nneg i32 %68 to i64
  %70 = lshr i64 %67, %69
  %71 = trunc i64 %70 to i32
  %72 = and i32 %71, 1
  %73 = or disjoint i32 %72, 48
  %fputc15.us.i47 = tail call i32 @fputc(i32 %73, ptr null)
  %74 = add nuw nsw i32 %.01417.us.i46, 1
  %exitcond23.not.i48 = icmp eq i32 %74, %54
  br i1 %exitcond23.not.i48, label %._crit_edge.us.i49, label %63, !llvm.loop !150

._crit_edge.us.i49:                               ; preds = %63
  %fputc.us.i50 = tail call i32 @fputc(i32 10, ptr null)
  %indvars.iv.next.i51 = add nuw nsw i64 %indvars.iv.i44, 1
  %exitcond25.not.i52 = icmp eq i64 %indvars.iv.next.i51, %wide.trip.count.i42
  br i1 %exitcond25.not.i52, label %Supp_DeriveDumpSims.exit53, label %.lr.ph.us.i43, !llvm.loop !151

.lr.ph20.split.i36:                               ; preds = %.lr.ph20.i35, %.lr.ph20.split.i36
  %.018.i37 = phi i32 [ %75, %.lr.ph20.split.i36 ], [ 0, %.lr.ph20.i35 ]
  %fputc.i38 = tail call i32 @fputc(i32 10, ptr null)
  %75 = add nuw nsw i32 %.018.i37, 1
  %exitcond.not.i39 = icmp eq i32 %75, %56
  br i1 %exitcond.not.i39, label %Supp_DeriveDumpSims.exit53, label %.lr.ph20.split.i36, !llvm.loop !151

Supp_DeriveDumpSims.exit53:                       ; preds = %.lr.ph20.split.i36, %._crit_edge.us.i49, %.split13
  %76 = getelementptr i8, ptr %0, i64 4
  %.val.i54 = load i32, ptr %76, align 4, !tbaa !3
  %77 = sdiv i32 %.val.i54, %2
  %78 = icmp sgt i32 %77, 0
  br i1 %78, label %.lr.ph20.i55, label %Supp_DeriveDumpSims.exit33

.lr.ph20.i55:                                     ; preds = %Supp_DeriveDumpSims.exit53
  %79 = getelementptr i8, ptr %0, i64 8
  %80 = icmp sgt i32 %2, 0
  br i1 %80, label %.lr.ph.us.preheader.i60, label %.lr.ph20.split.i56

.lr.ph.us.preheader.i60:                          ; preds = %.lr.ph20.i55
  %81 = zext nneg i32 %2 to i64
  %wide.trip.count.i62 = zext nneg i32 %77 to i64
  br label %.lr.ph.us.i63

.lr.ph.us.i63:                                    ; preds = %._crit_edge.us.i69, %.lr.ph.us.preheader.i60
  %indvars.iv.i64 = phi i64 [ 0, %.lr.ph.us.preheader.i60 ], [ %indvars.iv.next.i71, %._crit_edge.us.i69 ]
  %82 = mul nuw nsw i64 %indvars.iv.i64, %81
  %.val16.us.i65 = load ptr, ptr %79, align 8, !tbaa !10
  %83 = getelementptr inbounds nuw i64, ptr %.val16.us.i65, i64 %82
  br label %84

84:                                               ; preds = %84, %.lr.ph.us.i63
  %.01417.us.i66 = phi i32 [ 0, %.lr.ph.us.i63 ], [ %95, %84 ]
  %85 = lshr i32 %.01417.us.i66, 6
  %86 = zext nneg i32 %85 to i64
  %87 = getelementptr inbounds nuw i64, ptr %83, i64 %86
  %88 = load i64, ptr %87, align 8, !tbaa !11
  %89 = and i32 %.01417.us.i66, 63
  %90 = zext nneg i32 %89 to i64
  %91 = lshr i64 %88, %90
  %92 = trunc i64 %91 to i32
  %93 = and i32 %92, 1
  %94 = or disjoint i32 %93, 48
  %fputc15.us.i67 = tail call i32 @fputc(i32 %94, ptr null)
  %95 = add nuw nsw i32 %.01417.us.i66, 1
  %exitcond23.not.i68 = icmp eq i32 %95, %54
  br i1 %exitcond23.not.i68, label %._crit_edge.us.i69, label %84, !llvm.loop !150

._crit_edge.us.i69:                               ; preds = %84
  %fputc.us.i70 = tail call i32 @fputc(i32 10, ptr null)
  %indvars.iv.next.i71 = add nuw nsw i64 %indvars.iv.i64, 1
  %exitcond25.not.i72 = icmp eq i64 %indvars.iv.next.i71, %wide.trip.count.i62
  br i1 %exitcond25.not.i72, label %Supp_DeriveDumpSims.exit33, label %.lr.ph.us.i63, !llvm.loop !151

.lr.ph20.split.i56:                               ; preds = %.lr.ph20.i55, %.lr.ph20.split.i56
  %.018.i57 = phi i32 [ %96, %.lr.ph20.split.i56 ], [ 0, %.lr.ph20.i55 ]
  %fputc.i58 = tail call i32 @fputc(i32 10, ptr null)
  %96 = add nuw nsw i32 %.018.i57, 1
  %exitcond.not.i59 = icmp eq i32 %96, %77
  br i1 %exitcond.not.i59, label %Supp_DeriveDumpSims.exit33, label %.lr.ph20.split.i56, !llvm.loop !151

Supp_DeriveDumpSims.exit33:                       ; preds = %.lr.ph20.split.i16, %._crit_edge.us.i29, %.lr.ph20.split.i56, %._crit_edge.us.i69, %Supp_DeriveDumpSims.exit53, %Supp_DeriveDumpSims.exit
  %97 = tail call i32 @fclose(ptr noundef %9)
  call void @llvm.lifetime.end.p0(i64 100, ptr nonnull %4) #32
  ret void
}